#include <math.h>
#include <stdio.h>
#include <stdlib.h>
#include <string.h>

int main()
{
	int a[100][100],row,col,i,j,k,n;
	scanf("%d%d",&row,&col);
	for(i=0;i<row;i++){
		for(j=0;j<col;j++)
			scanf("%d",&a[i][j]);
	}
	if(row>col) n=2*col;
	else if(row<col) n=2*row;
	else n=2*row-1;
	for(k=0;k<n;k++){
		if(k%4==0){
		    for(i=k/4;i<col-k/4;i++)
				printf("%d\n",a[k/4][i]);
		}
        if(k%4==1){
		    for(i=k/4+1;i<row-k/4;i++)
				printf("%d\n",a[i][col-1-k/4]);
		}
        if(k%4==2){
		    for(i=k/4+1;i<col-k/4;i++)
				printf("%d\n",a[row-1-k/4][col-1-i]);
		}
        if(k%4==3){
		    for(i=k/4+1;i<row-k/4-1;i++)
				printf("%d\n",a[row-i-1][k/4]);
		}
	}
	return 0;
}